target datalayout = "e-m:e-p270:32:32-p271:32:32-p272:64:64-i64:64-i128:128-f80:128-n8:16:32:64-S128"
target triple = "x86_64-pc-linux-gnu"

@.str.2 = private unnamed_addr constant [99 x i8] c"generated/home/dtcxzyw/WorkSpace/Projects/compilers/llvm-opt-benchmark/bench/hdf5/hdf5/src/H5Doh.c\00", align 1
@H5E_DATASET_g = external global i64, align 8
@H5P_LST_LINK_ACCESS_ID_g = external global i64, align 8
@H5P_LST_DATASET_ACCESS_ID_g = external global i64, align 8
@H5P_CLS_LINK_ACCESS_ID_g = external global i64, align 8
@__func__.H5O__dset_open = private unnamed_addr constant [15 x i8] c"H5O__dset_open\00", align 1
@H5E_CANTGET_g = external global i64, align 8
@.str.5 = private unnamed_addr constant [26 x i8] c"unable to get LAPL status\00", align 1
@H5P_CLS_DATASET_ACCESS_ID_g = external global i64, align 8
@.str.6 = private unnamed_addr constant [26 x i8] c"unable to get DAPL status\00", align 1
@H5E_CANTOPENOBJ_g = external global i64, align 8
@.str.7 = private unnamed_addr constant [23 x i8] c"unable to open dataset\00", align 1
@H5E_CLOSEERROR_g = external global i64, align 8
@.str.8 = private unnamed_addr constant [26 x i8] c"unable to release dataset\00", align 1

; Function Attrs: nounwind uwtable
define internal ptr @H5O__dset_open(ptr noundef %0, ptr noundef %1) #0 {
  %3 = alloca ptr, align 8
  %4 = alloca ptr, align 8
  %5 = alloca ptr, align 8
  %6 = alloca i64, align 8
  %7 = alloca ptr, align 8
  %8 = alloca i8, align 1
  %9 = alloca i32, align 4
  %10 = alloca i32, align 4
  store ptr %0, ptr %3, align 8
  store ptr %1, ptr %4, align 8
  store ptr null, ptr %5, align 8
  store ptr null, ptr %7, align 8
  store i8 0, ptr %8, align 1
  %11 = load ptr, ptr %4, align 8
  store i32 5, ptr %11, align 4
  %12 = call i64 @H5CX_get_lapl()
  store i64 %12, ptr %6, align 8
  %13 = load i64, ptr %6, align 8
  %14 = load i64, ptr @H5P_LST_LINK_ACCESS_ID_g, align 8
  %15 = icmp eq i64 %13, %14
  br i1 %15, label %16, label %18

16:                                               ; preds = %2
  %17 = load i64, ptr @H5P_LST_DATASET_ACCESS_ID_g, align 8
  store i64 %17, ptr %6, align 8
  br label %67

18:                                               ; preds = %2
  %19 = load i64, ptr %6, align 8
  %20 = load i64, ptr @H5P_CLS_LINK_ACCESS_ID_g, align 8
  %21 = call i32 @H5P_isa_class(i64 noundef %19, i64 noundef %20)
  store i32 %21, ptr %9, align 4
  %22 = icmp slt i32 %21, 0
  br i1 %22, label %23, label %38

23:                                               ; preds = %18
  br label %24

24:                                               ; preds = %23
  br label %25

25:                                               ; preds = %24
  br label %26

26:                                               ; preds = %25
  %27 = load i64, ptr @H5E_DATASET_g, align 8
  %28 = load i64, ptr @H5E_CANTGET_g, align 8
  %29 = call i32 (ptr, ptr, i32, i64, i64, ptr, ...) @H5E_printf_stack(ptr noundef @.str.2, ptr noundef @__func__.H5O__dset_open, i32 noundef 223, i64 noundef %27, i64 noundef %28, ptr noundef @.str.5)
  br label %30

30:                                               ; preds = %26
  store i8 1, ptr %8, align 1
  %31 = load i8, ptr %8, align 1
  %32 = trunc i8 %31 to i1
  %33 = zext i1 %32 to i8
  store i8 %33, ptr %8, align 1
  br label %34

34:                                               ; preds = %30
  br label %35

35:                                               ; preds = %34
  store ptr null, ptr %7, align 8
  br label %89

36:                                               ; No predecessors!
  br label %37

37:                                               ; preds = %36
  br label %38

38:                                               ; preds = %37, %18
  %39 = load i64, ptr %6, align 8
  %40 = load i64, ptr @H5P_CLS_DATASET_ACCESS_ID_g, align 8
  %41 = call i32 @H5P_isa_class(i64 noundef %39, i64 noundef %40)
  store i32 %41, ptr %10, align 4
  %42 = icmp slt i32 %41, 0
  br i1 %42, label %43, label %58

43:                                               ; preds = %38
  br label %44

44:                                               ; preds = %43
  br label %45

45:                                               ; preds = %44
  br label %46

46:                                               ; preds = %45
  %47 = load i64, ptr @H5E_DATASET_g, align 8
  %48 = load i64, ptr @H5E_CANTGET_g, align 8
  %49 = call i32 (ptr, ptr, i32, i64, i64, ptr, ...) @H5E_printf_stack(ptr noundef @.str.2, ptr noundef @__func__.H5O__dset_open, i32 noundef 225, i64 noundef %47, i64 noundef %48, ptr noundef @.str.6)
  br label %50

50:                                               ; preds = %46
  store i8 1, ptr %8, align 1
  %51 = load i8, ptr %8, align 1
  %52 = trunc i8 %51 to i1
  %53 = zext i1 %52 to i8
  store i8 %53, ptr %8, align 1
  br label %54

54:                                               ; preds = %50
  br label %55

55:                                               ; preds = %54
  store ptr null, ptr %7, align 8
  br label %89

56:                                               ; No predecessors!
  br label %57

57:                                               ; preds = %56
  br label %58

58:                                               ; preds = %57, %38
  %59 = load i32, ptr %10, align 4
  %60 = icmp ne i32 %59, 0
  br i1 %60, label %66, label %61

61:                                               ; preds = %58
  %62 = load i32, ptr %9, align 4
  %63 = icmp ne i32 %62, 0
  br i1 %63, label %64, label %66

64:                                               ; preds = %61
  %65 = load i64, ptr @H5P_LST_DATASET_ACCESS_ID_g, align 8
  store i64 %65, ptr %6, align 8
  br label %66

66:                                               ; preds = %64, %61, %58
  br label %67

67:                                               ; preds = %66, %16
  %68 = load ptr, ptr %3, align 8
  %69 = load i64, ptr %6, align 8
  %70 = call ptr @H5D_open(ptr noundef %68, i64 noundef %69)
  store ptr %70, ptr %5, align 8
  %71 = icmp eq ptr null, %70
  br i1 %71, label %72, label %87

72:                                               ; preds = %67
  br label %73

73:                                               ; preds = %72
  br label %74

74:                                               ; preds = %73
  br label %75

75:                                               ; preds = %74
  %76 = load i64, ptr @H5E_DATASET_g, align 8
  %77 = load i64, ptr @H5E_CANTOPENOBJ_g, align 8
  %78 = call i32 (ptr, ptr, i32, i64, i64, ptr, ...) @H5E_printf_stack(ptr noundef @.str.2, ptr noundef @__func__.H5O__dset_open, i32 noundef 234, i64 noundef %76, i64 noundef %77, ptr noundef @.str.7)
  br label %79

79:                                               ; preds = %75
  store i8 1, ptr %8, align 1
  %80 = load i8, ptr %8, align 1
  %81 = trunc i8 %80 to i1
  %82 = zext i1 %81 to i8
  store i8 %82, ptr %8, align 1
  br label %83

83:                                               ; preds = %79
  br label %84

84:                                               ; preds = %83
  store ptr null, ptr %7, align 8
  br label %89

85:                                               ; No predecessors!
  br label %86

86:                                               ; preds = %85
  br label %87

87:                                               ; preds = %86, %67
  %88 = load ptr, ptr %5, align 8
  store ptr %88, ptr %7, align 8
  br label %89

89:                                               ; preds = %87, %84, %55, %35
  %90 = load ptr, ptr %7, align 8
  %91 = icmp eq ptr null, %90
  br i1 %91, label %92, label %113

92:                                               ; preds = %89
  %93 = load ptr, ptr %5, align 8
  %94 = icmp ne ptr %93, null
  br i1 %94, label %95, label %112

95:                                               ; preds = %92
  %96 = load ptr, ptr %5, align 8
  %97 = call i32 @H5D_close(ptr noundef %96)
  %98 = icmp slt i32 %97, 0
  br i1 %98, label %99, label %112

99:                                               ; preds = %95
  br label %100

100:                                              ; preds = %99
  br label %101

101:                                              ; preds = %100
  br label %102

102:                                              ; preds = %101
  %103 = load i64, ptr @H5E_DATASET_g, align 8
  %104 = load i64, ptr @H5E_CLOSEERROR_g, align 8
  %105 = call i32 (ptr, ptr, i32, i64, i64, ptr, ...) @H5E_printf_stack(ptr noundef @.str.2, ptr noundef @__func__.H5O__dset_open, i32 noundef 241, i64 noundef %103, i64 noundef %104, ptr noundef @.str.8)
  br label %106

106:                                              ; preds = %102
  store i8 1, ptr %8, align 1
  %107 = load i8, ptr %8, align 1
  %108 = trunc i8 %107 to i1
  %109 = zext i1 %108 to i8
  store i8 %109, ptr %8, align 1
  br label %110

110:                                              ; preds = %106
  store ptr null, ptr %7, align 8
  br label %111

111:                                              ; preds = %110
  br label %112

112:                                              ; preds = %111, %95, %92
  br label %113

113:                                              ; preds = %112, %89
  %114 = load ptr, ptr %7, align 8
  ret ptr %114
}