; Function Attrs: nounwind uwtable
define internal ptr @H5O__dset_open(ptr noundef %0, ptr nocapture noundef writeonly %1) #0 {
  store i32 5, ptr %1, align 4
  %3 = tail call i64 @H5CX_get_lapl() #3
  %4 = load i64, ptr @H5P_LST_LINK_ACCESS_ID_g, align 8
  %5 = icmp eq i64 %3, %4
  br i1 %5, label %6, label %8

6:                                                ; preds = %2
  %7 = load i64, ptr @H5P_LST_DATASET_ACCESS_ID_g, align 8
  br label %28

8:                                                ; preds = %2
  %9 = load i64, ptr @H5P_CLS_LINK_ACCESS_ID_g, align 8
  %10 = tail call i32 @H5P_isa_class(i64 noundef %3, i64 noundef %9) #3
  %11 = icmp slt i32 %10, 0
  br i1 %11, label %12, label %16

12:                                               ; preds = %8
  %13 = load i64, ptr @H5E_DATASET_g, align 8
  %14 = load i64, ptr @H5E_CANTGET_g, align 8
  %15 = tail call i32 (ptr, ptr, i32, i64, i64, ptr, ...) @H5E_printf_stack(ptr noundef nonnull @.str.2, ptr noundef nonnull @__func__.H5O__dset_open, i32 noundef 223, i64 noundef %13, i64 noundef %14, ptr noundef nonnull @.str.5) #3
  br label %35

16:                                               ; preds = %8
  %17 = load i64, ptr @H5P_CLS_DATASET_ACCESS_ID_g, align 8
  %18 = tail call i32 @H5P_isa_class(i64 noundef %3, i64 noundef %17) #3
  %19 = icmp slt i32 %18, 0
  br i1 %19, label %20, label %24

20:                                               ; preds = %16
  %21 = load i64, ptr @H5E_DATASET_g, align 8
  %22 = load i64, ptr @H5E_CANTGET_g, align 8
  %23 = tail call i32 (ptr, ptr, i32, i64, i64, ptr, ...) @H5E_printf_stack(ptr noundef nonnull @.str.2, ptr noundef nonnull @__func__.H5O__dset_open, i32 noundef 225, i64 noundef %21, i64 noundef %22, ptr noundef nonnull @.str.6) #3
  br label %35

24:                                               ; preds = %16
  %25 = icmp eq i32 %18, 0
  %26 = icmp ne i32 %10, 0
  %or.cond = and i1 %26, %25
  %27 = load i64, ptr @H5P_LST_DATASET_ACCESS_ID_g, align 8
  %spec.select = select i1 %or.cond, i64 %27, i64 %3
  br label %28

28:                                               ; preds = %24, %6
  %.019 = phi i64 [ %7, %6 ], [ %spec.select, %24 ]
  %29 = tail call ptr @H5D_open(ptr noundef %0, i64 noundef %.019) #3
  %30 = icmp eq ptr %29, null
  br i1 %30, label %31, label %35

31:                                               ; preds = %28
  %32 = load i64, ptr @H5E_DATASET_g, align 8
  %33 = load i64, ptr @H5E_CANTOPENOBJ_g, align 8
  %34 = tail call i32 (ptr, ptr, i32, i64, i64, ptr, ...) @H5E_printf_stack(ptr noundef nonnull @.str.2, ptr noundef nonnull @__func__.H5O__dset_open, i32 noundef 234, i64 noundef %32, i64 noundef %33, ptr noundef nonnull @.str.7) #3
  br label %35

35:                                               ; preds = %12, %20, %31, %28
  %.0 = phi ptr [ null, %31 ], [ null, %12 ], [ null, %20 ], [ %29, %28 ]
  ret ptr %.0
}